target datalayout = "e-m:e-p270:32:32-p271:32:32-p272:64:64-i64:64-i128:128-f80:128-n8:16:32:64-S128"
target triple = "x86_64-pc-linux-gnu"

%struct.expert_field = type { i32, i32 }
%struct._scsi_task_data = type { i32, ptr, ptr }
%struct._itlq_nexus_t = type { i32, i32, i16, i16, i16, i16, i32, i32, i32, %struct.nstime_t, %struct.nstime_t, ptr }
%struct.nstime_t = type { i64, i32 }

@cdb_control_fields = hidden constant [6 x ptr] [ptr @hf_scsi_control_vendor_specific, ptr @hf_scsi_control_reserved, ptr @hf_scsi_control_naca, ptr @hf_scsi_control_obs1, ptr @hf_scsi_control_obs2, ptr null], align 16
@hf_scsi_reserved_64 = internal global i32 0, align 4
@hf_scsi_reserved_8 = internal global i32 0, align 4
@hf_scsi_control = hidden global i32 0, align 4
@ett_scsi_control = hidden global i32 0, align 4
@hf_scsi_spc_xcopy_cscd_desc_type_code = internal global i32 0, align 4
@hf_scsi_reserved_16 = internal global i32 0, align 4
@hf_scsi_spc_recv_copy_service = internal global i32 0, align 4
@hf_scsi_alloclen32 = internal global i32 0, align 4
@hf_scsi_recv_copy_avail_data = internal global i32 0, align 4
@hf_scsi_recv_copy_snlid = internal global i32 0, align 4
@hf_scsi_reserved_24 = internal global i32 0, align 4
@hf_scsi_recv_copy_max_cscd_desc_count = internal global i32 0, align 4
@hf_scsi_recv_copy_max_seg_desc_count = internal global i32 0, align 4
@hf_scsi_recv_copy_max_desc_list_len = internal global i32 0, align 4
@hf_scsi_recv_copy_max_seg_len = internal global i32 0, align 4
@hf_scsi_recv_copy_max_inline_data_len = internal global i32 0, align 4
@hf_scsi_recv_copy_held_data_limit = internal global i32 0, align 4
@hf_scsi_recv_copy_max_stream_dev_trans_size = internal global i32 0, align 4
@hf_scsi_recv_copy_total_con_copies = internal global i32 0, align 4
@hf_scsi_recv_copy_max_con_copies = internal global i32 0, align 4
@hf_scsi_recv_copy_data_seg_gran = internal global i32 0, align 4
@hf_scsi_recv_copy_inline_data_gran = internal global i32 0, align 4
@hf_scsi_recv_copy_held_data_gran = internal global i32 0, align 4
@hf_scsi_recv_copy_implemented_desc_list_len = internal global i32 0, align 4
@ei_scsi_unknown_serv_action = internal global %struct.expert_field zeroinitializer, align 4
@.str.43 = private unnamed_addr constant [23 x i8] c"Unknown serv_action %u\00", align 1

; Function Attrs: nounwind uwtable
define hidden void @dissect_spc_recvcopy(ptr noundef %0, ptr noundef %1, ptr noundef %2, i32 noundef %3, i32 noundef %4, i32 noundef %5, i32 noundef %6, ptr noundef %7) #0 {
  %9 = alloca ptr, align 8
  %10 = alloca ptr, align 8
  %11 = alloca ptr, align 8
  %12 = alloca i32, align 4
  %13 = alloca i32, align 4
  %14 = alloca i32, align 4
  %15 = alloca i32, align 4
  %16 = alloca ptr, align 8
  %17 = alloca i16, align 2
  %18 = alloca i8, align 1
  store ptr %0, ptr %9, align 8
  store ptr %1, ptr %10, align 8
  store ptr %2, ptr %11, align 8
  store i32 %3, ptr %12, align 4
  store i32 %4, ptr %13, align 4
  store i32 %5, ptr %14, align 4
  store i32 %6, ptr %15, align 4
  store ptr %7, ptr %16, align 8
  %19 = load i32, ptr %13, align 4
  %20 = icmp ne i32 %19, 0
  br i1 %20, label %21, label %76

21:                                               ; preds = %8
  %22 = load i32, ptr %14, align 4
  %23 = icmp ne i32 %22, 0
  br i1 %23, label %24, label %76

24:                                               ; preds = %21
  %25 = load ptr, ptr %11, align 8
  %26 = load i32, ptr @hf_scsi_spc_recv_copy_service, align 4
  %27 = load ptr, ptr %9, align 8
  %28 = load i32, ptr %12, align 4
  %29 = call ptr @proto_tree_add_item(ptr noundef %25, i32 noundef %26, ptr noundef %27, i32 noundef %28, i32 noundef 1, i32 noundef 0)
  %30 = load ptr, ptr %9, align 8
  %31 = load i32, ptr %12, align 4
  %32 = call zeroext i8 @tvb_get_guint8(ptr noundef %30, i32 noundef %31)
  %33 = zext i8 %32 to i32
  %34 = and i32 %33, 31
  %35 = trunc i32 %34 to i16
  store i16 %35, ptr %17, align 2
  %36 = load ptr, ptr %16, align 8
  %37 = icmp ne ptr %36, null
  br i1 %37, label %38, label %44

38:                                               ; preds = %24
  %39 = load i16, ptr %17, align 2
  %40 = load ptr, ptr %16, align 8
  %41 = getelementptr inbounds %struct._scsi_task_data, ptr %40, i32 0, i32 1
  %42 = load ptr, ptr %41, align 8
  %43 = getelementptr inbounds %struct._itlq_nexus_t, ptr %42, i32 0, i32 4
  store i16 %39, ptr %43, align 4
  br label %44

44:                                               ; preds = %38, %24
  %45 = load i32, ptr %12, align 4
  %46 = add i32 %45, 1
  store i32 %46, ptr %12, align 4
  %47 = load ptr, ptr %11, align 8
  %48 = load i32, ptr @hf_scsi_reserved_64, align 4
  %49 = load ptr, ptr %9, align 8
  %50 = load i32, ptr %12, align 4
  %51 = call ptr @proto_tree_add_item(ptr noundef %47, i32 noundef %48, ptr noundef %49, i32 noundef %50, i32 noundef 8, i32 noundef 0)
  %52 = load i32, ptr %12, align 4
  %53 = add i32 %52, 8
  store i32 %53, ptr %12, align 4
  %54 = load ptr, ptr %11, align 8
  %55 = load i32, ptr @hf_scsi_alloclen32, align 4
  %56 = load ptr, ptr %9, align 8
  %57 = load i32, ptr %12, align 4
  %58 = call ptr @proto_tree_add_item(ptr noundef %54, i32 noundef %55, ptr noundef %56, i32 noundef %57, i32 noundef 4, i32 noundef 0)
  %59 = load i32, ptr %12, align 4
  %60 = add i32 %59, 4
  store i32 %60, ptr %12, align 4
  %61 = load ptr, ptr %11, align 8
  %62 = load i32, ptr @hf_scsi_reserved_8, align 4
  %63 = load ptr, ptr %9, align 8
  %64 = load i32, ptr %12, align 4
  %65 = call ptr @proto_tree_add_item(ptr noundef %61, i32 noundef %62, ptr noundef %63, i32 noundef %64, i32 noundef 1, i32 noundef 0)
  %66 = load i32, ptr %12, align 4
  %67 = add i32 %66, 1
  store i32 %67, ptr %12, align 4
  %68 = load ptr, ptr %11, align 8
  %69 = load ptr, ptr %9, align 8
  %70 = load i32, ptr %12, align 4
  %71 = load i32, ptr @hf_scsi_control, align 4
  %72 = load i32, ptr @ett_scsi_control, align 4
  %73 = call ptr @proto_tree_add_bitmask(ptr noundef %68, ptr noundef %69, i32 noundef %70, i32 noundef %71, i32 noundef %72, ptr noundef @cdb_control_fields, i32 noundef 0)
  %74 = load i32, ptr %12, align 4
  %75 = add i32 %74, 1
  store i32 %75, ptr %12, align 4
  br label %244

76:                                               ; preds = %21, %8
  %77 = load ptr, ptr %16, align 8
  %78 = icmp ne ptr %77, null
  br i1 %78, label %79, label %85

79:                                               ; preds = %76
  %80 = load ptr, ptr %16, align 8
  %81 = getelementptr inbounds %struct._scsi_task_data, ptr %80, i32 0, i32 1
  %82 = load ptr, ptr %81, align 8
  %83 = getelementptr inbounds %struct._itlq_nexus_t, ptr %82, i32 0, i32 4
  %84 = load i16, ptr %83, align 4
  store i16 %84, ptr %17, align 2
  br label %86

85:                                               ; preds = %76
  br label %244

86:                                               ; preds = %79
  %87 = load i16, ptr %17, align 2
  %88 = zext i16 %87 to i32
  %89 = icmp eq i32 %88, 3
  br i1 %89, label %90, label %235

90:                                               ; preds = %86
  %91 = load ptr, ptr %11, align 8
  %92 = load i32, ptr @hf_scsi_recv_copy_avail_data, align 4
  %93 = load ptr, ptr %9, align 8
  %94 = load i32, ptr %12, align 4
  %95 = call ptr @proto_tree_add_item(ptr noundef %91, i32 noundef %92, ptr noundef %93, i32 noundef %94, i32 noundef 4, i32 noundef 0)
  %96 = load i32, ptr %12, align 4
  %97 = add i32 %96, 4
  store i32 %97, ptr %12, align 4
  %98 = load ptr, ptr %11, align 8
  %99 = load i32, ptr @hf_scsi_recv_copy_snlid, align 4
  %100 = load ptr, ptr %9, align 8
  %101 = load i32, ptr %12, align 4
  %102 = call ptr @proto_tree_add_item(ptr noundef %98, i32 noundef %99, ptr noundef %100, i32 noundef %101, i32 noundef 1, i32 noundef 0)
  %103 = load i32, ptr %12, align 4
  %104 = add i32 %103, 1
  store i32 %104, ptr %12, align 4
  %105 = load ptr, ptr %11, align 8
  %106 = load i32, ptr @hf_scsi_reserved_24, align 4
  %107 = load ptr, ptr %9, align 8
  %108 = load i32, ptr %12, align 4
  %109 = call ptr @proto_tree_add_item(ptr noundef %105, i32 noundef %106, ptr noundef %107, i32 noundef %108, i32 noundef 3, i32 noundef 0)
  %110 = load i32, ptr %12, align 4
  %111 = add i32 %110, 3
  store i32 %111, ptr %12, align 4
  %112 = load ptr, ptr %11, align 8
  %113 = load i32, ptr @hf_scsi_recv_copy_max_cscd_desc_count, align 4
  %114 = load ptr, ptr %9, align 8
  %115 = load i32, ptr %12, align 4
  %116 = call ptr @proto_tree_add_item(ptr noundef %112, i32 noundef %113, ptr noundef %114, i32 noundef %115, i32 noundef 2, i32 noundef 0)
  %117 = load i32, ptr %12, align 4
  %118 = add i32 %117, 2
  store i32 %118, ptr %12, align 4
  %119 = load ptr, ptr %11, align 8
  %120 = load i32, ptr @hf_scsi_recv_copy_max_seg_desc_count, align 4
  %121 = load ptr, ptr %9, align 8
  %122 = load i32, ptr %12, align 4
  %123 = call ptr @proto_tree_add_item(ptr noundef %119, i32 noundef %120, ptr noundef %121, i32 noundef %122, i32 noundef 2, i32 noundef 0)
  %124 = load i32, ptr %12, align 4
  %125 = add i32 %124, 2
  store i32 %125, ptr %12, align 4
  %126 = load ptr, ptr %11, align 8
  %127 = load i32, ptr @hf_scsi_recv_copy_max_desc_list_len, align 4
  %128 = load ptr, ptr %9, align 8
  %129 = load i32, ptr %12, align 4
  %130 = call ptr @proto_tree_add_item(ptr noundef %126, i32 noundef %127, ptr noundef %128, i32 noundef %129, i32 noundef 4, i32 noundef 0)
  %131 = load i32, ptr %12, align 4
  %132 = add i32 %131, 4
  store i32 %132, ptr %12, align 4
  %133 = load ptr, ptr %11, align 8
  %134 = load i32, ptr @hf_scsi_recv_copy_max_seg_len, align 4
  %135 = load ptr, ptr %9, align 8
  %136 = load i32, ptr %12, align 4
  %137 = call ptr @proto_tree_add_item(ptr noundef %133, i32 noundef %134, ptr noundef %135, i32 noundef %136, i32 noundef 4, i32 noundef 0)
  %138 = load i32, ptr %12, align 4
  %139 = add i32 %138, 4
  store i32 %139, ptr %12, align 4
  %140 = load ptr, ptr %11, align 8
  %141 = load i32, ptr @hf_scsi_recv_copy_max_inline_data_len, align 4
  %142 = load ptr, ptr %9, align 8
  %143 = load i32, ptr %12, align 4
  %144 = call ptr @proto_tree_add_item(ptr noundef %140, i32 noundef %141, ptr noundef %142, i32 noundef %143, i32 noundef 4, i32 noundef 0)
  %145 = load i32, ptr %12, align 4
  %146 = add i32 %145, 4
  store i32 %146, ptr %12, align 4
  %147 = load ptr, ptr %11, align 8
  %148 = load i32, ptr @hf_scsi_recv_copy_held_data_limit, align 4
  %149 = load ptr, ptr %9, align 8
  %150 = load i32, ptr %12, align 4
  %151 = call ptr @proto_tree_add_item(ptr noundef %147, i32 noundef %148, ptr noundef %149, i32 noundef %150, i32 noundef 4, i32 noundef 0)
  %152 = load i32, ptr %12, align 4
  %153 = add i32 %152, 4
  store i32 %153, ptr %12, align 4
  %154 = load ptr, ptr %11, align 8
  %155 = load i32, ptr @hf_scsi_recv_copy_max_stream_dev_trans_size, align 4
  %156 = load ptr, ptr %9, align 8
  %157 = load i32, ptr %12, align 4
  %158 = call ptr @proto_tree_add_item(ptr noundef %154, i32 noundef %155, ptr noundef %156, i32 noundef %157, i32 noundef 4, i32 noundef 0)
  %159 = load i32, ptr %12, align 4
  %160 = add i32 %159, 4
  store i32 %160, ptr %12, align 4
  %161 = load ptr, ptr %11, align 8
  %162 = load i32, ptr @hf_scsi_reserved_16, align 4
  %163 = load ptr, ptr %9, align 8
  %164 = load i32, ptr %12, align 4
  %165 = call ptr @proto_tree_add_item(ptr noundef %161, i32 noundef %162, ptr noundef %163, i32 noundef %164, i32 noundef 2, i32 noundef 0)
  %166 = load i32, ptr %12, align 4
  %167 = add i32 %166, 2
  store i32 %167, ptr %12, align 4
  %168 = load ptr, ptr %11, align 8
  %169 = load i32, ptr @hf_scsi_recv_copy_total_con_copies, align 4
  %170 = load ptr, ptr %9, align 8
  %171 = load i32, ptr %12, align 4
  %172 = call ptr @proto_tree_add_item(ptr noundef %168, i32 noundef %169, ptr noundef %170, i32 noundef %171, i32 noundef 2, i32 noundef 0)
  %173 = load i32, ptr %12, align 4
  %174 = add i32 %173, 2
  store i32 %174, ptr %12, align 4
  %175 = load ptr, ptr %11, align 8
  %176 = load i32, ptr @hf_scsi_recv_copy_max_con_copies, align 4
  %177 = load ptr, ptr %9, align 8
  %178 = load i32, ptr %12, align 4
  %179 = call ptr @proto_tree_add_item(ptr noundef %175, i32 noundef %176, ptr noundef %177, i32 noundef %178, i32 noundef 1, i32 noundef 0)
  %180 = load i32, ptr %12, align 4
  %181 = add i32 %180, 1
  store i32 %181, ptr %12, align 4
  %182 = load ptr, ptr %11, align 8
  %183 = load i32, ptr @hf_scsi_recv_copy_data_seg_gran, align 4
  %184 = load ptr, ptr %9, align 8
  %185 = load i32, ptr %12, align 4
  %186 = call ptr @proto_tree_add_item(ptr noundef %182, i32 noundef %183, ptr noundef %184, i32 noundef %185, i32 noundef 1, i32 noundef 0)
  %187 = load i32, ptr %12, align 4
  %188 = add i32 %187, 1
  store i32 %188, ptr %12, align 4
  %189 = load ptr, ptr %11, align 8
  %190 = load i32, ptr @hf_scsi_recv_copy_inline_data_gran, align 4
  %191 = load ptr, ptr %9, align 8
  %192 = load i32, ptr %12, align 4
  %193 = call ptr @proto_tree_add_item(ptr noundef %189, i32 noundef %190, ptr noundef %191, i32 noundef %192, i32 noundef 1, i32 noundef 0)
  %194 = load i32, ptr %12, align 4
  %195 = add i32 %194, 1
  store i32 %195, ptr %12, align 4
  %196 = load ptr, ptr %11, align 8
  %197 = load i32, ptr @hf_scsi_recv_copy_held_data_gran, align 4
  %198 = load ptr, ptr %9, align 8
  %199 = load i32, ptr %12, align 4
  %200 = call ptr @proto_tree_add_item(ptr noundef %196, i32 noundef %197, ptr noundef %198, i32 noundef %199, i32 noundef 1, i32 noundef 0)
  %201 = load i32, ptr %12, align 4
  %202 = add i32 %201, 1
  store i32 %202, ptr %12, align 4
  %203 = load ptr, ptr %11, align 8
  %204 = load i32, ptr @hf_scsi_reserved_24, align 4
  %205 = load ptr, ptr %9, align 8
  %206 = load i32, ptr %12, align 4
  %207 = call ptr @proto_tree_add_item(ptr noundef %203, i32 noundef %204, ptr noundef %205, i32 noundef %206, i32 noundef 3, i32 noundef 0)
  %208 = load i32, ptr %12, align 4
  %209 = add i32 %208, 3
  store i32 %209, ptr %12, align 4
  %210 = load ptr, ptr %11, align 8
  %211 = load i32, ptr @hf_scsi_recv_copy_implemented_desc_list_len, align 4
  %212 = load ptr, ptr %9, align 8
  %213 = load i32, ptr %12, align 4
  %214 = call ptr @proto_tree_add_item(ptr noundef %210, i32 noundef %211, ptr noundef %212, i32 noundef %213, i32 noundef 1, i32 noundef 0)
  %215 = load ptr, ptr %9, align 8
  %216 = load i32, ptr %12, align 4
  %217 = call zeroext i8 @tvb_get_guint8(ptr noundef %215, i32 noundef %216)
  store i8 %217, ptr %18, align 1
  %218 = load i32, ptr %12, align 4
  %219 = add i32 %218, 1
  store i32 %219, ptr %12, align 4
  br label %220

220:                                              ; preds = %224, %90
  %221 = load i8, ptr %18, align 1
  %222 = zext i8 %221 to i32
  %223 = icmp sgt i32 %222, 0
  br i1 %223, label %224, label %234

224:                                              ; preds = %220
  %225 = load ptr, ptr %11, align 8
  %226 = load i32, ptr @hf_scsi_spc_xcopy_cscd_desc_type_code, align 4
  %227 = load ptr, ptr %9, align 8
  %228 = load i32, ptr %12, align 4
  %229 = call ptr @proto_tree_add_item(ptr noundef %225, i32 noundef %226, ptr noundef %227, i32 noundef %228, i32 noundef 1, i32 noundef 0)
  %230 = load i32, ptr %12, align 4
  %231 = add i32 %230, 1
  store i32 %231, ptr %12, align 4
  %232 = load i8, ptr %18, align 1
  %233 = add i8 %232, -1
  store i8 %233, ptr %18, align 1
  br label %220, !llvm.loop !10

234:                                              ; preds = %220
  br label %243

235:                                              ; preds = %86
  %236 = load ptr, ptr %11, align 8
  %237 = load ptr, ptr %10, align 8
  %238 = load ptr, ptr %9, align 8
  %239 = load i32, ptr %12, align 4
  %240 = load i16, ptr %17, align 2
  %241 = zext i16 %240 to i32
  %242 = call ptr (ptr, ptr, ptr, ptr, i32, i32, ptr, ...) @proto_tree_add_expert_format(ptr noundef %236, ptr noundef %237, ptr noundef @ei_scsi_unknown_serv_action, ptr noundef %238, i32 noundef %239, i32 noundef 0, ptr noundef @.str.43, i32 noundef %241)
  br label %243

243:                                              ; preds = %235, %234
  br label %244

244:                                              ; preds = %243, %85, %44
  ret void
}