; Function Attrs: nounwind uwtable
define hidden void @dissect_spc_recvcopy(ptr noundef %0, ptr noundef %1, ptr noundef %2, i32 noundef %3, i32 noundef %4, i32 noundef %5, i32 %6, ptr noundef readonly %7) #0 {
  %9 = icmp ne i32 %4, 0
  %10 = icmp ne i32 %5, 0
  %or.cond = and i1 %9, %10
  br i1 %or.cond, label %11, label %35

11:                                               ; preds = %8
  %12 = load i32, ptr @hf_scsi_spc_recv_copy_service, align 4
  %13 = tail call ptr @proto_tree_add_item(ptr noundef %2, i32 noundef %12, ptr noundef %0, i32 noundef %3, i32 noundef 1, i32 noundef 0) #10
  %14 = tail call zeroext i8 @tvb_get_guint8(ptr noundef %0, i32 noundef %3) #10
  %.not119 = icmp eq ptr %7, null
  br i1 %.not119, label %21, label %15

15:                                               ; preds = %11
  %16 = and i8 %14, 31
  %17 = zext nneg i8 %16 to i16
  %18 = getelementptr inbounds nuw i8, ptr %7, i64 8
  %19 = load ptr, ptr %18, align 8
  %20 = getelementptr inbounds nuw i8, ptr %19, i64 12
  store i16 %17, ptr %20, align 4
  br label %21

21:                                               ; preds = %15, %11
  %22 = add i32 %3, 1
  %23 = load i32, ptr @hf_scsi_reserved_64, align 4
  %24 = tail call ptr @proto_tree_add_item(ptr noundef %2, i32 noundef %23, ptr noundef %0, i32 noundef %22, i32 noundef 8, i32 noundef 0) #10
  %25 = add i32 %3, 9
  %26 = load i32, ptr @hf_scsi_alloclen32, align 4
  %27 = tail call ptr @proto_tree_add_item(ptr noundef %2, i32 noundef %26, ptr noundef %0, i32 noundef %25, i32 noundef 4, i32 noundef 0) #10
  %28 = add i32 %3, 13
  %29 = load i32, ptr @hf_scsi_reserved_8, align 4
  %30 = tail call ptr @proto_tree_add_item(ptr noundef %2, i32 noundef %29, ptr noundef %0, i32 noundef %28, i32 noundef 1, i32 noundef 0) #10
  %31 = add i32 %3, 14
  %32 = load i32, ptr @hf_scsi_control, align 4
  %33 = load i32, ptr @ett_scsi_control, align 4
  %34 = tail call ptr @proto_tree_add_bitmask(ptr noundef %2, ptr noundef %0, i32 noundef %31, i32 noundef %32, i32 noundef %33, ptr noundef nonnull @cdb_control_fields, i32 noundef 0) #10
  br label %.loopexit

35:                                               ; preds = %8
  %.not = icmp eq ptr %7, null
  br i1 %.not, label %.loopexit, label %36

36:                                               ; preds = %35
  %37 = getelementptr inbounds nuw i8, ptr %7, i64 8
  %38 = load ptr, ptr %37, align 8
  %39 = getelementptr inbounds nuw i8, ptr %38, i64 12
  %40 = load i16, ptr %39, align 4
  %41 = icmp eq i16 %40, 3
  br i1 %41, label %42, label %102

42:                                               ; preds = %36
  %43 = load i32, ptr @hf_scsi_recv_copy_avail_data, align 4
  %44 = tail call ptr @proto_tree_add_item(ptr noundef %2, i32 noundef %43, ptr noundef %0, i32 noundef %3, i32 noundef 4, i32 noundef 0) #10
  %45 = add i32 %3, 4
  %46 = load i32, ptr @hf_scsi_recv_copy_snlid, align 4
  %47 = tail call ptr @proto_tree_add_item(ptr noundef %2, i32 noundef %46, ptr noundef %0, i32 noundef %45, i32 noundef 1, i32 noundef 0) #10
  %48 = add i32 %3, 5
  %49 = load i32, ptr @hf_scsi_reserved_24, align 4
  %50 = tail call ptr @proto_tree_add_item(ptr noundef %2, i32 noundef %49, ptr noundef %0, i32 noundef %48, i32 noundef 3, i32 noundef 0) #10
  %51 = add i32 %3, 8
  %52 = load i32, ptr @hf_scsi_recv_copy_max_cscd_desc_count, align 4
  %53 = tail call ptr @proto_tree_add_item(ptr noundef %2, i32 noundef %52, ptr noundef %0, i32 noundef %51, i32 noundef 2, i32 noundef 0) #10
  %54 = add i32 %3, 10
  %55 = load i32, ptr @hf_scsi_recv_copy_max_seg_desc_count, align 4
  %56 = tail call ptr @proto_tree_add_item(ptr noundef %2, i32 noundef %55, ptr noundef %0, i32 noundef %54, i32 noundef 2, i32 noundef 0) #10
  %57 = add i32 %3, 12
  %58 = load i32, ptr @hf_scsi_recv_copy_max_desc_list_len, align 4
  %59 = tail call ptr @proto_tree_add_item(ptr noundef %2, i32 noundef %58, ptr noundef %0, i32 noundef %57, i32 noundef 4, i32 noundef 0) #10
  %60 = add i32 %3, 16
  %61 = load i32, ptr @hf_scsi_recv_copy_max_seg_len, align 4
  %62 = tail call ptr @proto_tree_add_item(ptr noundef %2, i32 noundef %61, ptr noundef %0, i32 noundef %60, i32 noundef 4, i32 noundef 0) #10
  %63 = add i32 %3, 20
  %64 = load i32, ptr @hf_scsi_recv_copy_max_inline_data_len, align 4
  %65 = tail call ptr @proto_tree_add_item(ptr noundef %2, i32 noundef %64, ptr noundef %0, i32 noundef %63, i32 noundef 4, i32 noundef 0) #10
  %66 = add i32 %3, 24
  %67 = load i32, ptr @hf_scsi_recv_copy_held_data_limit, align 4
  %68 = tail call ptr @proto_tree_add_item(ptr noundef %2, i32 noundef %67, ptr noundef %0, i32 noundef %66, i32 noundef 4, i32 noundef 0) #10
  %69 = add i32 %3, 28
  %70 = load i32, ptr @hf_scsi_recv_copy_max_stream_dev_trans_size, align 4
  %71 = tail call ptr @proto_tree_add_item(ptr noundef %2, i32 noundef %70, ptr noundef %0, i32 noundef %69, i32 noundef 4, i32 noundef 0) #10
  %72 = add i32 %3, 32
  %73 = load i32, ptr @hf_scsi_reserved_16, align 4
  %74 = tail call ptr @proto_tree_add_item(ptr noundef %2, i32 noundef %73, ptr noundef %0, i32 noundef %72, i32 noundef 2, i32 noundef 0) #10
  %75 = add i32 %3, 34
  %76 = load i32, ptr @hf_scsi_recv_copy_total_con_copies, align 4
  %77 = tail call ptr @proto_tree_add_item(ptr noundef %2, i32 noundef %76, ptr noundef %0, i32 noundef %75, i32 noundef 2, i32 noundef 0) #10
  %78 = add i32 %3, 36
  %79 = load i32, ptr @hf_scsi_recv_copy_max_con_copies, align 4
  %80 = tail call ptr @proto_tree_add_item(ptr noundef %2, i32 noundef %79, ptr noundef %0, i32 noundef %78, i32 noundef 1, i32 noundef 0) #10
  %81 = add i32 %3, 37
  %82 = load i32, ptr @hf_scsi_recv_copy_data_seg_gran, align 4
  %83 = tail call ptr @proto_tree_add_item(ptr noundef %2, i32 noundef %82, ptr noundef %0, i32 noundef %81, i32 noundef 1, i32 noundef 0) #10
  %84 = add i32 %3, 38
  %85 = load i32, ptr @hf_scsi_recv_copy_inline_data_gran, align 4
  %86 = tail call ptr @proto_tree_add_item(ptr noundef %2, i32 noundef %85, ptr noundef %0, i32 noundef %84, i32 noundef 1, i32 noundef 0) #10
  %87 = add i32 %3, 39
  %88 = load i32, ptr @hf_scsi_recv_copy_held_data_gran, align 4
  %89 = tail call ptr @proto_tree_add_item(ptr noundef %2, i32 noundef %88, ptr noundef %0, i32 noundef %87, i32 noundef 1, i32 noundef 0) #10
  %90 = add i32 %3, 40
  %91 = load i32, ptr @hf_scsi_reserved_24, align 4
  %92 = tail call ptr @proto_tree_add_item(ptr noundef %2, i32 noundef %91, ptr noundef %0, i32 noundef %90, i32 noundef 3, i32 noundef 0) #10
  %93 = add i32 %3, 43
  %94 = load i32, ptr @hf_scsi_recv_copy_implemented_desc_list_len, align 4
  %95 = tail call ptr @proto_tree_add_item(ptr noundef %2, i32 noundef %94, ptr noundef %0, i32 noundef %93, i32 noundef 1, i32 noundef 0) #10
  %96 = tail call zeroext i8 @tvb_get_guint8(ptr noundef %0, i32 noundef %93) #10
  %.not118120 = icmp eq i8 %96, 0
  br i1 %.not118120, label %.loopexit, label %.lr.ph.preheader

.lr.ph.preheader:                                 ; preds = %42
  %97 = add i32 %3, 44
  br label %.lr.ph

.lr.ph:                                           ; preds = %.lr.ph.preheader, %.lr.ph
  %.0122 = phi i8 [ %101, %.lr.ph ], [ %96, %.lr.ph.preheader ]
  %.0115121 = phi i32 [ %100, %.lr.ph ], [ %97, %.lr.ph.preheader ]
  %98 = load i32, ptr @hf_scsi_spc_xcopy_cscd_desc_type_code, align 4
  %99 = tail call ptr @proto_tree_add_item(ptr noundef %2, i32 noundef %98, ptr noundef %0, i32 noundef %.0115121, i32 noundef 1, i32 noundef 0) #10
  %100 = add i32 %.0115121, 1
  %101 = add i8 %.0122, -1
  %.not118 = icmp eq i8 %101, 0
  br i1 %.not118, label %.loopexit, label %.lr.ph, !llvm.loop !10

102:                                              ; preds = %36
  %103 = zext i16 %40 to i32
  %104 = tail call ptr (ptr, ptr, ptr, ptr, i32, i32, ptr, ...) @proto_tree_add_expert_format(ptr noundef %2, ptr noundef %1, ptr noundef nonnull @ei_scsi_unknown_serv_action, ptr noundef %0, i32 noundef %3, i32 noundef 0, ptr noundef nonnull @.str.43, i32 noundef %103) #10
  br label %.loopexit

.loopexit:                                        ; preds = %.lr.ph, %42, %102, %35, %21
  ret void
}